; ModuleID = '2/491.c'
source_filename = "2/491.c"
target datalayout = "e-m:e-p270:32:32-p271:32:32-p272:64:64-i64:64-f80:128-n8:16:32:64-S128"
target triple = "x86_64-pc-linux-gnu"

%struct.book = type { i32, [200 x i8] }

@.str = private unnamed_addr constant [3 x i8] c"%d\00", align 1
@.str.1 = private unnamed_addr constant [5 x i8] c"%d%s\00", align 1
@bk = common dso_local global [1000 x %struct.book] zeroinitializer, align 16
@.str.2 = private unnamed_addr constant [4 x i8] c"%c\0A\00", align 1
@.str.3 = private unnamed_addr constant [4 x i8] c"%d\0A\00", align 1

; Function Attrs: noinline nounwind uwtable
define dso_local i32 @main() #0 {
  %1 = alloca i32, align 4
  %2 = alloca i32, align 4
  %3 = alloca i32, align 4
  %4 = alloca i32, align 4
  %5 = alloca i32, align 4
  %6 = alloca i32, align 4
  %7 = alloca i32, align 4
  %8 = alloca i32, align 4
  %9 = alloca [200 x [1000 x i32]], align 16
  %10 = alloca [200 x i32], align 16
  store i32 0, i32* %1, align 4
  store i32 0, i32* %6, align 4
  %11 = call i32 (i8*, ...) @__isoc99_scanf(i8* getelementptr inbounds ([3 x i8], [3 x i8]* @.str, i64 0, i64 0), i32* %2)
  store i32 0, i32* %3, align 4
  br label %12

12:                                               ; preds = %27, %0
  %13 = load i32, i32* %3, align 4
  %14 = load i32, i32* %2, align 4
  %15 = icmp slt i32 %13, %14
  br i1 %15, label %16, label %30

16:                                               ; preds = %12
  %17 = load i32, i32* %3, align 4
  %18 = sext i32 %17 to i64
  %19 = getelementptr inbounds [1000 x %struct.book], [1000 x %struct.book]* @bk, i64 0, i64 %18
  %20 = getelementptr inbounds %struct.book, %struct.book* %19, i32 0, i32 0
  %21 = load i32, i32* %3, align 4
  %22 = sext i32 %21 to i64
  %23 = getelementptr inbounds [1000 x %struct.book], [1000 x %struct.book]* @bk, i64 0, i64 %22
  %24 = getelementptr inbounds %struct.book, %struct.book* %23, i32 0, i32 1
  %25 = getelementptr inbounds [200 x i8], [200 x i8]* %24, i64 0, i64 0
  %26 = call i32 (i8*, ...) @__isoc99_scanf(i8* getelementptr inbounds ([5 x i8], [5 x i8]* @.str.1, i64 0, i64 0), i32* %20, i8* %25)
  br label %27

27:                                               ; preds = %16
  %28 = load i32, i32* %3, align 4
  %29 = add nsw i32 %28, 1
  store i32 %29, i32* %3, align 4
  br label %12

30:                                               ; preds = %12
  store i32 0, i32* %4, align 4
  br label %31

31:                                               ; preds = %91, %30
  %32 = load i32, i32* %4, align 4
  %33 = icmp slt i32 %32, 26
  br i1 %33, label %34, label %94

34:                                               ; preds = %31
  store i32 0, i32* %3, align 4
  br label %35

35:                                               ; preds = %83, %34
  %36 = load i32, i32* %3, align 4
  %37 = load i32, i32* %2, align 4
  %38 = icmp slt i32 %36, %37
  br i1 %38, label %39, label %86

39:                                               ; preds = %35
  store i32 0, i32* %5, align 4
  br label %40

40:                                               ; preds = %79, %39
  %41 = load i32, i32* %3, align 4
  %42 = sext i32 %41 to i64
  %43 = getelementptr inbounds [1000 x %struct.book], [1000 x %struct.book]* @bk, i64 0, i64 %42
  %44 = getelementptr inbounds %struct.book, %struct.book* %43, i32 0, i32 1
  %45 = load i32, i32* %5, align 4
  %46 = sext i32 %45 to i64
  %47 = getelementptr inbounds [200 x i8], [200 x i8]* %44, i64 0, i64 %46
  %48 = load i8, i8* %47, align 1
  %49 = sext i8 %48 to i32
  %50 = icmp ne i32 %49, 0
  br i1 %50, label %51, label %82

51:                                               ; preds = %40
  %52 = load i32, i32* %3, align 4
  %53 = sext i32 %52 to i64
  %54 = getelementptr inbounds [1000 x %struct.book], [1000 x %struct.book]* @bk, i64 0, i64 %53
  %55 = getelementptr inbounds %struct.book, %struct.book* %54, i32 0, i32 1
  %56 = load i32, i32* %5, align 4
  %57 = sext i32 %56 to i64
  %58 = getelementptr inbounds [200 x i8], [200 x i8]* %55, i64 0, i64 %57
  %59 = load i8, i8* %58, align 1
  %60 = sext i8 %59 to i32
  %61 = load i32, i32* %4, align 4
  %62 = add nsw i32 %61, 65
  %63 = icmp eq i32 %60, %62
  br i1 %63, label %64, label %78

64:                                               ; preds = %51
  %65 = load i32, i32* %3, align 4
  %66 = sext i32 %65 to i64
  %67 = getelementptr inbounds [1000 x %struct.book], [1000 x %struct.book]* @bk, i64 0, i64 %66
  %68 = getelementptr inbounds %struct.book, %struct.book* %67, i32 0, i32 0
  %69 = load i32, i32* %68, align 4
  %70 = load i32, i32* %4, align 4
  %71 = sext i32 %70 to i64
  %72 = getelementptr inbounds [200 x [1000 x i32]], [200 x [1000 x i32]]* %9, i64 0, i64 %71
  %73 = load i32, i32* %6, align 4
  %74 = sext i32 %73 to i64
  %75 = getelementptr inbounds [1000 x i32], [1000 x i32]* %72, i64 0, i64 %74
  store i32 %69, i32* %75, align 4
  %76 = load i32, i32* %6, align 4
  %77 = add nsw i32 %76, 1
  store i32 %77, i32* %6, align 4
  br label %78

78:                                               ; preds = %64, %51
  br label %79

79:                                               ; preds = %78
  %80 = load i32, i32* %5, align 4
  %81 = add nsw i32 %80, 1
  store i32 %81, i32* %5, align 4
  br label %40

82:                                               ; preds = %40
  br label %83

83:                                               ; preds = %82
  %84 = load i32, i32* %3, align 4
  %85 = add nsw i32 %84, 1
  store i32 %85, i32* %3, align 4
  br label %35

86:                                               ; preds = %35
  %87 = load i32, i32* %6, align 4
  %88 = load i32, i32* %4, align 4
  %89 = sext i32 %88 to i64
  %90 = getelementptr inbounds [200 x i32], [200 x i32]* %10, i64 0, i64 %89
  store i32 %87, i32* %90, align 4
  store i32 0, i32* %6, align 4
  br label %91

91:                                               ; preds = %86
  %92 = load i32, i32* %4, align 4
  %93 = add nsw i32 %92, 1
  store i32 %93, i32* %4, align 4
  br label %31

94:                                               ; preds = %31
  %95 = getelementptr inbounds [200 x i32], [200 x i32]* %10, i64 0, i64 0
  %96 = load i32, i32* %95, align 16
  store i32 %96, i32* %7, align 4
  store i32 0, i32* %8, align 4
  store i32 0, i32* %4, align 4
  br label %97

97:                                               ; preds = %114, %94
  %98 = load i32, i32* %4, align 4
  %99 = icmp slt i32 %98, 26
  br i1 %99, label %100, label %117

100:                                              ; preds = %97
  %101 = load i32, i32* %4, align 4
  %102 = sext i32 %101 to i64
  %103 = getelementptr inbounds [200 x i32], [200 x i32]* %10, i64 0, i64 %102
  %104 = load i32, i32* %103, align 4
  %105 = load i32, i32* %7, align 4
  %106 = icmp sgt i32 %104, %105
  br i1 %106, label %107, label %113

107:                                              ; preds = %100
  %108 = load i32, i32* %4, align 4
  %109 = sext i32 %108 to i64
  %110 = getelementptr inbounds [200 x i32], [200 x i32]* %10, i64 0, i64 %109
  %111 = load i32, i32* %110, align 4
  store i32 %111, i32* %7, align 4
  %112 = load i32, i32* %4, align 4
  store i32 %112, i32* %8, align 4
  br label %113

113:                                              ; preds = %107, %100
  br label %114

114:                                              ; preds = %113
  %115 = load i32, i32* %4, align 4
  %116 = add nsw i32 %115, 1
  store i32 %116, i32* %4, align 4
  br label %97

117:                                              ; preds = %97
  %118 = load i32, i32* %8, align 4
  %119 = add nsw i32 %118, 65
  %120 = call i32 (i8*, ...) @printf(i8* getelementptr inbounds ([4 x i8], [4 x i8]* @.str.2, i64 0, i64 0), i32 %119)
  %121 = load i32, i32* %7, align 4
  %122 = call i32 (i8*, ...) @printf(i8* getelementptr inbounds ([4 x i8], [4 x i8]* @.str.3, i64 0, i64 0), i32 %121)
  store i32 0, i32* %3, align 4
  br label %123

123:                                              ; preds = %136, %117
  %124 = load i32, i32* %3, align 4
  %125 = load i32, i32* %7, align 4
  %126 = icmp slt i32 %124, %125
  br i1 %126, label %127, label %139

127:                                              ; preds = %123
  %128 = load i32, i32* %8, align 4
  %129 = sext i32 %128 to i64
  %130 = getelementptr inbounds [200 x [1000 x i32]], [200 x [1000 x i32]]* %9, i64 0, i64 %129
  %131 = load i32, i32* %3, align 4
  %132 = sext i32 %131 to i64
  %133 = getelementptr inbounds [1000 x i32], [1000 x i32]* %130, i64 0, i64 %132
  %134 = load i32, i32* %133, align 4
  %135 = call i32 (i8*, ...) @printf(i8* getelementptr inbounds ([4 x i8], [4 x i8]* @.str.3, i64 0, i64 0), i32 %134)
  br label %136

136:                                              ; preds = %127
  %137 = load i32, i32* %3, align 4
  %138 = add nsw i32 %137, 1
  store i32 %138, i32* %3, align 4
  br label %123

139:                                              ; preds = %123
  ret i32 0
}

declare dso_local i32 @__isoc99_scanf(i8*, ...) #1

declare dso_local i32 @printf(i8*, ...) #1


!llvm.module.flags = !{!0}
!llvm.ident = !{!1}

!0 = !{i32 1, !"wchar_size", i32 4}
!1 = !{!"clang version 10.0.0-4ubuntu1 "}
